target datalayout = "e-m:e-p270:32:32-p271:32:32-p272:64:64-i64:64-i128:128-f80:128-n8:16:32:64-S128"
target triple = "x86_64-pc-linux-gnu"

%struct.ossl_param_st = type { ptr, i32, ptr, i64, i64 }
%struct.ssl_connection_st = type { %struct.ssl_st, ptr, i32, ptr, ptr, ptr, i32, ptr, i32, i32, i32, i32, %struct.OSSL_TIME, %struct.OSSL_TIME, %struct.ossl_statem_st, i32, ptr, ptr, i64, i64, i64, %struct.ossl_quic_tls_callbacks_st, ptr, ptr, %struct.anon, ptr, ptr, ptr, i32, ptr, %struct.ssl_dane_st, ptr, ptr, ptr, ptr, i32, [64 x i8], [64 x i8], [64 x i8], [64 x i8], [64 x i8], [64 x i8], [64 x i8], [64 x i8], [64 x i8], [64 x i8], [64 x i8], [64 x i8], ptr, [64 x i8], i64, i32, i64, [32 x i8], ptr, ptr, ptr, i64, ptr, [32 x i8], i64, i32, ptr, ptr, i32, i32, ptr, ptr, ptr, ptr, ptr, i64, ptr, ptr, i64, i32, i32, i32, i64, i32, i32, i64, i64, i64, %struct.anon.1, ptr, i32, ptr, ptr, ptr, i32, ptr, ptr, ptr, i32, i32, i32, i32, ptr, i64, i32, ptr, %struct.srp_ctx_st, ptr, %struct.record_layer_st, ptr, ptr, ptr, ptr, i64, i32, i32, i32, i64, i64, i64, ptr, ptr, ptr, ptr, ptr, i64, ptr, i64, ptr, i64 }
%struct.ssl_st = type { i32, ptr, ptr, ptr, %struct.CRYPTO_REF_COUNT, ptr, %struct.crypto_ex_data_st }
%struct.CRYPTO_REF_COUNT = type { i32 }
%struct.crypto_ex_data_st = type { ptr, ptr }
%struct.OSSL_TIME = type { i64 }
%struct.ossl_statem_st = type { i32, i32, i32, i32, i32, i32, i32, i32, i32, i32, i32, i32, i32, ptr, ptr, ptr, i8 }
%struct.ossl_quic_tls_callbacks_st = type { ptr, ptr, ptr, ptr, ptr, ptr }
%struct.anon = type { i64, [32 x i8], [32 x i8], ptr, ptr, i32, i32, i32, i32, [2 x i8], i32, i32, i32, i32, %struct.anon.0, [64 x i8], i64, [64 x i8], i64, i32, i32, ptr, i64, ptr, i64, i32, i8, i8, i16, ptr, i16 }
%struct.anon.0 = type { [128 x i8], i64, [128 x i8], i64, i64, i32, ptr, ptr, [4 x ptr], [4 x i16], i64, i32, ptr, i64, ptr, i64, ptr, ptr, ptr, i32, i64, ptr, i32, ptr, i64, ptr, i64, ptr, i64, ptr, ptr, ptr, ptr, i64, i64, ptr, ptr, i32, i32, i32, i32 }
%struct.ssl_dane_st = type { ptr, ptr, ptr, ptr, ptr, i32, i32, i32, i64 }
%struct.anon.1 = type { [29 x i8], ptr, ptr, ptr, i32, ptr, i16, i32, %struct.anon.2, i32, i32, i64, ptr, i64, ptr, i64, ptr, i64, ptr, i64, ptr, i64, ptr, ptr, ptr, ptr, ptr, ptr, ptr, i64, ptr, i64, i32, i32, i32, i32, ptr, i64, i32, i8, i32, [4 x i32], i32, i8, i8, i8, i8 }
%struct.anon.2 = type { ptr, ptr, ptr, i64 }
%struct.srp_ctx_st = type { ptr, ptr, ptr, ptr, ptr, ptr, ptr, ptr, ptr, ptr, ptr, ptr, ptr, ptr, i32, i64 }
%struct.record_layer_st = type { ptr, ptr, ptr, ptr, ptr, ptr, ptr, ptr, i64, i32, i64, [4 x i8], i64, i64, i8, ptr, i32, ptr, ptr, ptr, i64, i64, i64, i64, [32 x %struct.tls_record_st] }
%struct.tls_record_st = type { ptr, i32, i8, ptr, ptr, i64, i64, i16, [8 x i8] }
%struct.ssl_ctx_st = type { ptr, ptr, ptr, ptr, ptr, ptr, ptr, i64, ptr, ptr, i32, %struct.OSSL_TIME, ptr, ptr, ptr, %struct.anon.3, %struct.CRYPTO_REF_COUNT, ptr, ptr, ptr, ptr, ptr, ptr, ptr, ptr, ptr, %struct.crypto_ex_data_st, ptr, ptr, ptr, ptr, ptr, ptr, ptr, i64, i32, i32, i32, i64, ptr, ptr, i32, ptr, ptr, i32, i64, [32 x i8], ptr, ptr, ptr, i32, ptr, ptr, ptr, i64, i64, i64, i64, ptr, ptr, ptr, ptr, ptr, %struct.anon.4, ptr, ptr, ptr, ptr, %struct.srp_ctx_st, %struct.dane_ctx_st, ptr, ptr, ptr, ptr, i32, i32, ptr, ptr, i64, i64, ptr, ptr, ptr, i64, ptr, ptr, i32, ptr, ptr, ptr, [14 x i32], [24 x ptr], [14 x ptr], [14 x i64], i64, ptr, ptr, ptr, i64, i64, ptr, i64, i64, i32, i32, i32, i32, ptr, i64, ptr, i64, i64, ptr, ptr }
%struct.anon.3 = type { i32, i32, i32, i32, i32, i32, i32, i32, i32, i32, i32 }
%struct.anon.4 = type { ptr, ptr, [16 x i8], ptr, ptr, ptr, ptr, ptr, i32, i8, i64, ptr, i64, ptr, i64, ptr, i64, ptr, ptr, i64, ptr, ptr, ptr, i64, ptr, ptr, ptr, ptr, [32 x i8] }
%struct.dane_ctx_st = type { ptr, ptr, i8, i64 }
%struct.ssl_method_st = type { i32, i32, i64, ptr, ptr, ptr, ptr, ptr, ptr, ptr, ptr, ptr, ptr, ptr, ptr, ptr, ptr, ptr, ptr, ptr, ptr, ptr, ptr, ptr, ptr, ptr, ptr, ptr, ptr, ptr, ptr, ptr }
%struct.ssl3_enc_method = type { ptr, ptr, ptr, ptr, ptr, i64, ptr, i64, ptr, ptr, i32, ptr, ptr, ptr }

@.str.1 = private unnamed_addr constant [27 x i8] c"../openssl/ssl/tls13_enc.c\00", align 1
@__func__.tls13_hkdf_expand = private unnamed_addr constant [18 x i8] c"tls13_hkdf_expand\00", align 1
@tls13_derive_finishedkey.finishedlabel = internal constant [9 x i8] c"finished\00", align 1
@.str.9 = private unnamed_addr constant [11 x i8] c"properties\00", align 1
@.str.10 = private unnamed_addr constant [5 x i8] c"HMAC\00", align 1
@__func__.tls13_final_finish_mac = private unnamed_addr constant [23 x i8] c"tls13_final_finish_mac\00", align 1

; Function Attrs: nounwind uwtable
define dso_local i32 @tls13_hkdf_expand(ptr noundef %0, ptr noundef %1, ptr noundef %2, ptr noundef %3, i64 noundef %4, ptr noundef %5, i64 noundef %6, ptr noundef %7, i64 noundef %8, i32 noundef %9) #0 {
  %11 = alloca ptr, align 8
  %12 = alloca ptr, align 8
  %13 = alloca ptr, align 8
  %14 = alloca ptr, align 8
  %15 = alloca i64, align 8
  %16 = alloca ptr, align 8
  %17 = alloca i64, align 8
  %18 = alloca ptr, align 8
  %19 = alloca i64, align 8
  %20 = alloca i32, align 4
  %21 = alloca i32, align 4
  %22 = alloca ptr, align 8
  store ptr %0, ptr %11, align 8, !tbaa !25
  store ptr %1, ptr %12, align 8, !tbaa !11
  store ptr %2, ptr %13, align 8, !tbaa !9
  store ptr %3, ptr %14, align 8, !tbaa !9
  store i64 %4, ptr %15, align 8, !tbaa !13
  store ptr %5, ptr %16, align 8, !tbaa !9
  store i64 %6, ptr %17, align 8, !tbaa !13
  store ptr %7, ptr %18, align 8, !tbaa !9
  store i64 %8, ptr %19, align 8, !tbaa !13
  store i32 %9, ptr %20, align 4, !tbaa !15
  call void @llvm.lifetime.start.p0(i64 4, ptr %21) #5
  call void @llvm.lifetime.start.p0(i64 8, ptr %22) #5
  %23 = load ptr, ptr %11, align 8, !tbaa !25
  %24 = getelementptr inbounds nuw %struct.ssl_connection_st, ptr %23, i32 0, i32 0
  %25 = getelementptr inbounds nuw %struct.ssl_st, ptr %24, i32 0, i32 1
  %26 = load ptr, ptr %25, align 8, !tbaa !27
  store ptr %26, ptr %22, align 8, !tbaa !84
  %27 = load ptr, ptr %22, align 8, !tbaa !84
  %28 = getelementptr inbounds nuw %struct.ssl_ctx_st, ptr %27, i32 0, i32 0
  %29 = load ptr, ptr %28, align 8, !tbaa !85
  %30 = load ptr, ptr %22, align 8, !tbaa !84
  %31 = getelementptr inbounds nuw %struct.ssl_ctx_st, ptr %30, i32 0, i32 89
  %32 = load ptr, ptr %31, align 8, !tbaa !100
  %33 = load ptr, ptr %12, align 8, !tbaa !11
  %34 = load ptr, ptr %13, align 8, !tbaa !9
  %35 = load ptr, ptr %14, align 8, !tbaa !9
  %36 = load i64, ptr %15, align 8, !tbaa !13
  %37 = load ptr, ptr %16, align 8, !tbaa !9
  %38 = load i64, ptr %17, align 8, !tbaa !13
  %39 = load ptr, ptr %18, align 8, !tbaa !9
  %40 = load i64, ptr %19, align 8, !tbaa !13
  %41 = load i32, ptr %20, align 4, !tbaa !15
  %42 = icmp ne i32 %41, 0
  %43 = xor i1 %42, true
  %44 = zext i1 %43 to i32
  %45 = call i32 @tls13_hkdf_expand_ex(ptr noundef %29, ptr noundef %32, ptr noundef %33, ptr noundef %34, ptr noundef %35, i64 noundef %36, ptr noundef %37, i64 noundef %38, ptr noundef %39, i64 noundef %40, i32 noundef %44)
  store i32 %45, ptr %21, align 4, !tbaa !15
  %46 = load i32, ptr %21, align 4, !tbaa !15
  %47 = icmp eq i32 %46, 0
  br i1 %47, label %48, label %53

48:                                               ; preds = %10
  %49 = load i32, ptr %20, align 4, !tbaa !15
  %50 = icmp ne i32 %49, 0
  br i1 %50, label %51, label %53

51:                                               ; preds = %48
  call void @ERR_new()
  call void @ERR_set_debug(ptr noundef @.str.1, i32 noundef 113, ptr noundef @__func__.tls13_hkdf_expand)
  %52 = load ptr, ptr %11, align 8, !tbaa !25
  call void (ptr, i32, i32, ptr, ...) @ossl_statem_fatal(ptr noundef %52, i32 noundef 80, i32 noundef 786691, ptr noundef null)
  br label %53

53:                                               ; preds = %51, %48, %10
  %54 = load i32, ptr %21, align 4, !tbaa !15
  call void @llvm.lifetime.end.p0(i64 8, ptr %22) #5
  call void @llvm.lifetime.end.p0(i64 4, ptr %21) #5
  ret i32 %54
}

; Function Attrs: nounwind uwtable
define dso_local i32 @tls13_derive_finishedkey(ptr noundef %0, ptr noundef %1, ptr noundef %2, ptr noundef %3, i64 noundef %4) #0 {
  %6 = alloca ptr, align 8
  %7 = alloca ptr, align 8
  %8 = alloca ptr, align 8
  %9 = alloca ptr, align 8
  %10 = alloca i64, align 8
  store ptr %0, ptr %6, align 8, !tbaa !25
  store ptr %1, ptr %7, align 8, !tbaa !11
  store ptr %2, ptr %8, align 8, !tbaa !9
  store ptr %3, ptr %9, align 8, !tbaa !9
  store i64 %4, ptr %10, align 8, !tbaa !13
  %11 = load ptr, ptr %6, align 8, !tbaa !25
  %12 = load ptr, ptr %7, align 8, !tbaa !11
  %13 = load ptr, ptr %8, align 8, !tbaa !9
  %14 = load ptr, ptr %9, align 8, !tbaa !9
  %15 = load i64, ptr %10, align 8, !tbaa !13
  %16 = call i32 @tls13_hkdf_expand(ptr noundef %11, ptr noundef %12, ptr noundef %13, ptr noundef @tls13_derive_finishedkey.finishedlabel, i64 noundef 8, ptr noundef null, i64 noundef 0, ptr noundef %14, i64 noundef %15, i32 noundef 1)
  ret i32 %16
}

; Function Attrs: nounwind uwtable
define dso_local i64 @tls13_final_finish_mac(ptr noundef %0, ptr noundef %1, i64 noundef %2, ptr noundef %3) #0 {
  %5 = alloca i64, align 8
  %6 = alloca ptr, align 8
  %7 = alloca ptr, align 8
  %8 = alloca i64, align 8
  %9 = alloca ptr, align 8
  %10 = alloca ptr, align 8
  %11 = alloca ptr, align 8
  %12 = alloca [64 x i8], align 16
  %13 = alloca [64 x i8], align 16
  %14 = alloca ptr, align 8
  %15 = alloca i64, align 8
  %16 = alloca i64, align 8
  %17 = alloca [2 x %struct.ossl_param_st], align 16
  %18 = alloca ptr, align 8
  %19 = alloca ptr, align 8
  %20 = alloca i32, align 4
  %21 = alloca %struct.ossl_param_st, align 8
  %22 = alloca %struct.ossl_param_st, align 8
  store ptr %0, ptr %6, align 8, !tbaa !25
  store ptr %1, ptr %7, align 8, !tbaa !9
  store i64 %2, ptr %8, align 8, !tbaa !13
  store ptr %3, ptr %9, align 8, !tbaa !9
  call void @llvm.lifetime.start.p0(i64 8, ptr %10) #5
  %23 = load ptr, ptr %6, align 8, !tbaa !25
  %24 = call ptr @ssl_handshake_md(ptr noundef %23)
  store ptr %24, ptr %10, align 8, !tbaa !11
  call void @llvm.lifetime.start.p0(i64 8, ptr %11) #5
  %25 = load ptr, ptr %10, align 8, !tbaa !11
  %26 = call ptr @EVP_MD_get0_name(ptr noundef %25)
  store ptr %26, ptr %11, align 8, !tbaa !9
  call void @llvm.lifetime.start.p0(i64 64, ptr %12) #5
  call void @llvm.lifetime.start.p0(i64 64, ptr %13) #5
  call void @llvm.lifetime.start.p0(i64 8, ptr %14) #5
  store ptr null, ptr %14, align 8, !tbaa !9
  call void @llvm.lifetime.start.p0(i64 8, ptr %15) #5
  store i64 0, ptr %15, align 8, !tbaa !13
  call void @llvm.lifetime.start.p0(i64 8, ptr %16) #5
  call void @llvm.lifetime.start.p0(i64 80, ptr %17) #5
  call void @llvm.lifetime.start.p0(i64 8, ptr %18) #5
  %27 = getelementptr inbounds [2 x %struct.ossl_param_st], ptr %17, i64 0, i64 0
  store ptr %27, ptr %18, align 8, !tbaa !19
  call void @llvm.lifetime.start.p0(i64 8, ptr %19) #5
  %28 = load ptr, ptr %6, align 8, !tbaa !25
  %29 = getelementptr inbounds nuw %struct.ssl_connection_st, ptr %28, i32 0, i32 0
  %30 = getelementptr inbounds nuw %struct.ssl_st, ptr %29, i32 0, i32 1
  %31 = load ptr, ptr %30, align 8, !tbaa !27
  store ptr %31, ptr %19, align 8, !tbaa !84
  %32 = load ptr, ptr %10, align 8, !tbaa !11
  %33 = icmp eq ptr %32, null
  br i1 %33, label %34, label %35

34:                                               ; preds = %4
  store i64 0, ptr %5, align 8
  store i32 1, ptr %20, align 4
  br label %122

35:                                               ; preds = %4
  %36 = load ptr, ptr %19, align 8, !tbaa !84
  %37 = getelementptr inbounds nuw %struct.ssl_ctx_st, ptr %36, i32 0, i32 89
  %38 = load ptr, ptr %37, align 8, !tbaa !100
  %39 = icmp ne ptr %38, null
  br i1 %39, label %40, label %46

40:                                               ; preds = %35
  %41 = load ptr, ptr %18, align 8, !tbaa !19
  %42 = getelementptr inbounds nuw %struct.ossl_param_st, ptr %41, i32 1
  store ptr %42, ptr %18, align 8, !tbaa !19
  call void @llvm.lifetime.start.p0(i64 40, ptr %21) #5
  %43 = load ptr, ptr %19, align 8, !tbaa !84
  %44 = getelementptr inbounds nuw %struct.ssl_ctx_st, ptr %43, i32 0, i32 89
  %45 = load ptr, ptr %44, align 8, !tbaa !100
  call void @OSSL_PARAM_construct_utf8_string(ptr dead_on_unwind writable sret(%struct.ossl_param_st) align 8 %21, ptr noundef @.str.9, ptr noundef %45, i64 noundef 0)
  call void @llvm.memcpy.p0.p0.i64(ptr align 8 %41, ptr align 8 %21, i64 40, i1 false), !tbaa.struct !23
  call void @llvm.lifetime.end.p0(i64 40, ptr %21) #5
  br label %46

46:                                               ; preds = %40, %35
  %47 = load ptr, ptr %18, align 8, !tbaa !19
  call void @llvm.lifetime.start.p0(i64 40, ptr %22) #5
  call void @OSSL_PARAM_construct_end(ptr dead_on_unwind writable sret(%struct.ossl_param_st) align 8 %22)
  call void @llvm.memcpy.p0.p0.i64(ptr align 8 %47, ptr align 8 %22, i64 40, i1 false), !tbaa.struct !23
  call void @llvm.lifetime.end.p0(i64 40, ptr %22) #5
  %48 = load ptr, ptr %6, align 8, !tbaa !25
  %49 = getelementptr inbounds [64 x i8], ptr %12, i64 0, i64 0
  %50 = call i32 @ssl_handshake_hash(ptr noundef %48, ptr noundef %49, i64 noundef 64, ptr noundef %16)
  %51 = icmp ne i32 %50, 0
  br i1 %51, label %53, label %52

52:                                               ; preds = %46
  br label %119

53:                                               ; preds = %46
  %54 = load ptr, ptr %7, align 8, !tbaa !9
  %55 = load ptr, ptr %6, align 8, !tbaa !25
  %56 = getelementptr inbounds nuw %struct.ssl_connection_st, ptr %55, i32 0, i32 0
  %57 = getelementptr inbounds nuw %struct.ssl_st, ptr %56, i32 0, i32 3
  %58 = load ptr, ptr %57, align 8, !tbaa !102
  %59 = getelementptr inbounds nuw %struct.ssl_method_st, ptr %58, i32 0, i32 28
  %60 = load ptr, ptr %59, align 8, !tbaa !103
  %61 = getelementptr inbounds nuw %struct.ssl3_enc_method, ptr %60, i32 0, i32 6
  %62 = load ptr, ptr %61, align 8, !tbaa !106
  %63 = icmp eq ptr %54, %62
  br i1 %63, label %64, label %68

64:                                               ; preds = %53
  %65 = load ptr, ptr %6, align 8, !tbaa !25
  %66 = getelementptr inbounds nuw %struct.ssl_connection_st, ptr %65, i32 0, i32 41
  %67 = getelementptr inbounds [64 x i8], ptr %66, i64 0, i64 0
  store ptr %67, ptr %14, align 8, !tbaa !9
  br label %100

68:                                               ; preds = %53
  %69 = load ptr, ptr %6, align 8, !tbaa !25
  %70 = getelementptr inbounds nuw %struct.ssl_connection_st, ptr %69, i32 0, i32 24
  %71 = getelementptr inbounds nuw %struct.anon, ptr %70, i32 0, i32 14
  %72 = getelementptr inbounds nuw %struct.anon.0, ptr %71, i32 0, i32 1
  %73 = load i64, ptr %72, align 8, !tbaa !108
  %74 = icmp eq i64 %73, 0
  br i1 %74, label %82, label %75

75:                                               ; preds = %68
  %76 = load ptr, ptr %6, align 8, !tbaa !25
  %77 = getelementptr inbounds nuw %struct.ssl_connection_st, ptr %76, i32 0, i32 24
  %78 = getelementptr inbounds nuw %struct.anon, ptr %77, i32 0, i32 14
  %79 = getelementptr inbounds nuw %struct.anon.0, ptr %78, i32 0, i32 3
  %80 = load i64, ptr %79, align 8, !tbaa !109
  %81 = icmp eq i64 %80, 0
  br i1 %81, label %82, label %86

82:                                               ; preds = %75, %68
  %83 = load ptr, ptr %6, align 8, !tbaa !25
  %84 = getelementptr inbounds nuw %struct.ssl_connection_st, ptr %83, i32 0, i32 40
  %85 = getelementptr inbounds [64 x i8], ptr %84, i64 0, i64 0
  store ptr %85, ptr %14, align 8, !tbaa !9
  br label %99

86:                                               ; preds = %75
  %87 = load ptr, ptr %6, align 8, !tbaa !25
  %88 = load ptr, ptr %10, align 8, !tbaa !11
  %89 = load ptr, ptr %6, align 8, !tbaa !25
  %90 = getelementptr inbounds nuw %struct.ssl_connection_st, ptr %89, i32 0, i32 44
  %91 = getelementptr inbounds [64 x i8], ptr %90, i64 0, i64 0
  %92 = getelementptr inbounds [64 x i8], ptr %13, i64 0, i64 0
  %93 = load i64, ptr %16, align 8, !tbaa !13
  %94 = call i32 @tls13_derive_finishedkey(ptr noundef %87, ptr noundef %88, ptr noundef %91, ptr noundef %92, i64 noundef %93)
  %95 = icmp ne i32 %94, 0
  br i1 %95, label %97, label %96

96:                                               ; preds = %86
  br label %119

97:                                               ; preds = %86
  %98 = getelementptr inbounds [64 x i8], ptr %13, i64 0, i64 0
  store ptr %98, ptr %14, align 8, !tbaa !9
  br label %99

99:                                               ; preds = %97, %82
  br label %100

100:                                              ; preds = %99, %64
  %101 = load ptr, ptr %19, align 8, !tbaa !84
  %102 = getelementptr inbounds nuw %struct.ssl_ctx_st, ptr %101, i32 0, i32 0
  %103 = load ptr, ptr %102, align 8, !tbaa !85
  %104 = load ptr, ptr %19, align 8, !tbaa !84
  %105 = getelementptr inbounds nuw %struct.ssl_ctx_st, ptr %104, i32 0, i32 89
  %106 = load ptr, ptr %105, align 8, !tbaa !100
  %107 = load ptr, ptr %11, align 8, !tbaa !9
  %108 = getelementptr inbounds [2 x %struct.ossl_param_st], ptr %17, i64 0, i64 0
  %109 = load ptr, ptr %14, align 8, !tbaa !9
  %110 = load i64, ptr %16, align 8, !tbaa !13
  %111 = getelementptr inbounds [64 x i8], ptr %12, i64 0, i64 0
  %112 = load i64, ptr %16, align 8, !tbaa !13
  %113 = load ptr, ptr %9, align 8, !tbaa !9
  %114 = call ptr @EVP_Q_mac(ptr noundef %103, ptr noundef @.str.10, ptr noundef %106, ptr noundef %107, ptr noundef %108, ptr noundef %109, i64 noundef %110, ptr noundef %111, i64 noundef %112, ptr noundef %113, i64 noundef 128, ptr noundef %15)
  %115 = icmp ne ptr %114, null
  br i1 %115, label %118, label %116

116:                                              ; preds = %100
  call void @ERR_new()
  call void @ERR_set_debug(ptr noundef @.str.1, i32 noundef 310, ptr noundef @__func__.tls13_final_finish_mac)
  %117 = load ptr, ptr %6, align 8, !tbaa !25
  call void (ptr, i32, i32, ptr, ...) @ossl_statem_fatal(ptr noundef %117, i32 noundef 80, i32 noundef 786691, ptr noundef null)
  br label %119

118:                                              ; preds = %100
  br label %119

119:                                              ; preds = %118, %116, %96, %52
  %120 = getelementptr inbounds [64 x i8], ptr %13, i64 0, i64 0
  call void @OPENSSL_cleanse(ptr noundef %120, i64 noundef 64)
  %121 = load i64, ptr %15, align 8, !tbaa !13
  store i64 %121, ptr %5, align 8
  store i32 1, ptr %20, align 4
  br label %122

122:                                              ; preds = %119, %34
  call void @llvm.lifetime.end.p0(i64 8, ptr %19) #5
  call void @llvm.lifetime.end.p0(i64 8, ptr %18) #5
  call void @llvm.lifetime.end.p0(i64 80, ptr %17) #5
  call void @llvm.lifetime.end.p0(i64 8, ptr %16) #5
  call void @llvm.lifetime.end.p0(i64 8, ptr %15) #5
  call void @llvm.lifetime.end.p0(i64 8, ptr %14) #5
  call void @llvm.lifetime.end.p0(i64 64, ptr %13) #5
  call void @llvm.lifetime.end.p0(i64 64, ptr %12) #5
  call void @llvm.lifetime.end.p0(i64 8, ptr %11) #5
  call void @llvm.lifetime.end.p0(i64 8, ptr %10) #5
  %123 = load i64, ptr %5, align 8
  ret i64 %123
}