; Function Attrs: nounwind uwtable
define dso_local i64 @tls13_final_finish_mac(ptr noundef %0, ptr noundef readnone captures(address) %1, i64 noundef %2, ptr noundef %3) local_unnamed_addr #0 {
  %5 = alloca [64 x i8], align 16
  %6 = alloca [64 x i8], align 16
  %7 = alloca i64, align 8
  %8 = alloca i64, align 8
  %9 = alloca [2 x %struct.ossl_param_st], align 16
  %10 = alloca %struct.ossl_param_st, align 8
  %11 = tail call ptr @ssl_handshake_md(ptr noundef %0) #4
  %12 = tail call ptr @EVP_MD_get0_name(ptr noundef %11) #4
  call void @llvm.lifetime.start.p0(i64 64, ptr nonnull %5) #4
  call void @llvm.lifetime.start.p0(i64 64, ptr nonnull %6) #4
  call void @llvm.lifetime.start.p0(i64 8, ptr nonnull %7) #4
  store i64 0, ptr %7, align 8, !tbaa !13
  call void @llvm.lifetime.start.p0(i64 8, ptr nonnull %8) #4
  call void @llvm.lifetime.start.p0(i64 80, ptr nonnull %9) #4
  %13 = getelementptr inbounds nuw i8, ptr %0, i64 8
  %14 = load ptr, ptr %13, align 8, !tbaa !15
  %15 = icmp eq ptr %11, null
  br i1 %15, label %59, label %16

16:                                               ; preds = %4
  %17 = getelementptr inbounds nuw i8, ptr %14, i64 1152
  %18 = load ptr, ptr %17, align 8, !tbaa !90
  %.not = icmp eq ptr %18, null
  br i1 %.not, label %21, label %19

19:                                               ; preds = %16
  %20 = getelementptr inbounds nuw i8, ptr %9, i64 40
  call void @OSSL_PARAM_construct_utf8_string(ptr dead_on_unwind nonnull writable sret(%struct.ossl_param_st) align 8 %9, ptr noundef nonnull @.str.9, ptr noundef nonnull %18, i64 noundef 0) #4
  br label %21

21:                                               ; preds = %19, %16
  %.024 = phi ptr [ %20, %19 ], [ %9, %16 ]
  call void @llvm.lifetime.start.p0(i64 40, ptr nonnull %10) #4
  call void @OSSL_PARAM_construct_end(ptr dead_on_unwind nonnull writable sret(%struct.ossl_param_st) align 8 %10) #4
  call void @llvm.memcpy.p0.p0.i64(ptr noundef nonnull align 8 dereferenceable(40) %.024, ptr noundef nonnull align 8 dereferenceable(40) %10, i64 40, i1 false), !tbaa.struct !8
  call void @llvm.lifetime.end.p0(i64 40, ptr nonnull %10) #4
  %22 = call i32 @ssl_handshake_hash(ptr noundef nonnull %0, ptr noundef nonnull %5, i64 noundef 64, ptr noundef nonnull %8) #4
  %.not27 = icmp eq i32 %22, 0
  br i1 %.not27, label %57, label %23

23:                                               ; preds = %21
  %24 = getelementptr inbounds nuw i8, ptr %0, i64 24
  %25 = load ptr, ptr %24, align 8, !tbaa !92
  %26 = getelementptr inbounds nuw i8, ptr %25, i64 216
  %27 = load ptr, ptr %26, align 8, !tbaa !93
  %28 = getelementptr inbounds nuw i8, ptr %27, i64 48
  %29 = load ptr, ptr %28, align 8, !tbaa !96
  %30 = icmp eq ptr %1, %29
  br i1 %30, label %31, label %33

31:                                               ; preds = %23
  %32 = getelementptr inbounds nuw i8, ptr %0, i64 1724
  br label %tls13_derive_finishedkey.exit

33:                                               ; preds = %23
  %34 = getelementptr inbounds nuw i8, ptr %0, i64 608
  %35 = load i64, ptr %34, align 8, !tbaa !98
  %36 = icmp eq i64 %35, 0
  br i1 %36, label %41, label %37

37:                                               ; preds = %33
  %38 = getelementptr inbounds nuw i8, ptr %0, i64 744
  %39 = load i64, ptr %38, align 8, !tbaa !99
  %40 = icmp eq i64 %39, 0
  br i1 %40, label %41, label %43

41:                                               ; preds = %37, %33
  %42 = getelementptr inbounds nuw i8, ptr %0, i64 1660
  br label %tls13_derive_finishedkey.exit

43:                                               ; preds = %37
  %44 = getelementptr inbounds nuw i8, ptr %0, i64 1916
  %45 = load i64, ptr %8, align 8, !tbaa !13
  %46 = load ptr, ptr %13, align 8, !tbaa !15
  %47 = load ptr, ptr %46, align 8, !tbaa !75
  %48 = getelementptr inbounds nuw i8, ptr %46, i64 1152
  %49 = load ptr, ptr %48, align 8, !tbaa !90
  %50 = call i32 @tls13_hkdf_expand_ex(ptr noundef %47, ptr noundef %49, ptr noundef nonnull %11, ptr noundef nonnull %44, ptr noundef nonnull @tls13_derive_finishedkey.finishedlabel, i64 noundef 8, ptr noundef null, i64 noundef 0, ptr noundef nonnull %6, i64 noundef %45, i32 noundef 0)
  %51 = icmp eq i32 %50, 0
  br i1 %51, label %tls13_derive_finishedkey.exit.thread, label %tls13_derive_finishedkey.exit

tls13_derive_finishedkey.exit.thread:             ; preds = %43
  call void @ERR_new() #4
  call void @ERR_set_debug(ptr noundef nonnull @.str.1, i32 noundef 113, ptr noundef nonnull @__func__.tls13_hkdf_expand) #4
  br label %.sink.split

tls13_derive_finishedkey.exit:                    ; preds = %43, %41, %31
  %.025 = phi ptr [ %32, %31 ], [ %42, %41 ], [ %6, %43 ]
  %52 = load ptr, ptr %14, align 8, !tbaa !75
  %53 = load ptr, ptr %17, align 8, !tbaa !90
  %54 = load i64, ptr %8, align 8, !tbaa !13
  %55 = call ptr @EVP_Q_mac(ptr noundef %52, ptr noundef nonnull @.str.10, ptr noundef %53, ptr noundef %12, ptr noundef nonnull %9, ptr noundef nonnull %.025, i64 noundef %54, ptr noundef nonnull %5, i64 noundef %54, ptr noundef %3, i64 noundef 128, ptr noundef nonnull %7) #4
  %.not29 = icmp eq ptr %55, null
  br i1 %.not29, label %56, label %57

56:                                               ; preds = %tls13_derive_finishedkey.exit
  call void @ERR_new() #4
  call void @ERR_set_debug(ptr noundef nonnull @.str.1, i32 noundef 310, ptr noundef nonnull @__func__.tls13_final_finish_mac) #4
  br label %.sink.split

.sink.split:                                      ; preds = %56, %tls13_derive_finishedkey.exit.thread
  call void (ptr, i32, i32, ptr, ...) @ossl_statem_fatal(ptr noundef nonnull %0, i32 noundef 80, i32 noundef 786691, ptr noundef null) #4
  br label %57

57:                                               ; preds = %.sink.split, %tls13_derive_finishedkey.exit, %21
  call void @OPENSSL_cleanse(ptr noundef nonnull %6, i64 noundef 64) #4
  %58 = load i64, ptr %7, align 8, !tbaa !13
  br label %59

59:                                               ; preds = %4, %57
  %.0 = phi i64 [ %58, %57 ], [ 0, %4 ]
  call void @llvm.lifetime.end.p0(i64 80, ptr nonnull %9) #4
  call void @llvm.lifetime.end.p0(i64 8, ptr nonnull %8) #4
  call void @llvm.lifetime.end.p0(i64 8, ptr nonnull %7) #4
  call void @llvm.lifetime.end.p0(i64 64, ptr nonnull %6) #4
  call void @llvm.lifetime.end.p0(i64 64, ptr nonnull %5) #4
  ret i64 %.0
}